target datalayout = "e-m:e-p270:32:32-p271:32:32-p272:64:64-i64:64-i128:128-f80:128-n8:16:32:64-S128"
target triple = "x86_64-unknown-linux-gnu"

%"struct.std::atomic.64" = type { %"struct.std::__atomic_base.65" }
%"struct.std::__atomic_base.65" = type { i64 }
%"class.grpc_core::RefCount" = type { %"struct.std::atomic.108" }
%"struct.std::atomic.108" = type { %"struct.std::__atomic_base.109" }
%"struct.std::__atomic_base.109" = type { i64 }
%"class.std::shared_ptr" = type { %"class.std::__shared_ptr" }
%"class.std::__shared_ptr" = type { ptr, %"class.std::__shared_count" }
%"class.std::__shared_count" = type { ptr }
%"class.std::unique_ptr.119" = type { %"struct.std::__uniq_ptr_data.120" }
%"struct.std::__uniq_ptr_data.120" = type { %"class.std::__uniq_ptr_impl.121" }
%"class.std::__uniq_ptr_impl.121" = type { %"class.std::tuple.122" }
%"class.std::tuple.122" = type { %"struct.std::_Tuple_impl.123" }
%"struct.std::_Tuple_impl.123" = type { %"struct.std::_Head_base.126" }
%"struct.std::_Head_base.126" = type { ptr }
%"class.grpc_core::ChannelArgs" = type { %"class.grpc_core::AVL" }
%"class.grpc_core::AVL" = type { %"class.grpc_core::RefCountedPtr.127" }
%"class.grpc_core::RefCountedPtr.127" = type { ptr }
%"class.grpc_core::LoadBalancingPolicy" = type { %"class.grpc_core::InternallyRefCounted", %"class.std::shared_ptr", ptr, %"class.std::unique_ptr.119", %"class.grpc_core::ChannelArgs" }
%"class.grpc_core::InternallyRefCounted" = type { %"class.grpc_core::Orphanable", %"class.grpc_core::RefCount" }
%"class.grpc_core::Orphanable" = type { ptr }
%"class.grpc_core::DualRefCounted" = type { %"class.grpc_core::Orphanable", %"struct.std::atomic.64" }
%"class.grpc_core::SubchannelList" = type <{ %"class.grpc_core::DualRefCounted", ptr, ptr, %"class.std::vector.165", i8, [7 x i8] }>
%"class.std::vector.165" = type { %"struct.std::_Vector_base.166" }
%"struct.std::_Vector_base.166" = type { %"struct.std::_Vector_base<grpc_core::ManualConstructor<grpc_core::(anonymous namespace)::OldWeightedRoundRobin::WeightedRoundRobinSubchannelData>, std::allocator<grpc_core::ManualConstructor<grpc_core::(anonymous namespace)::OldWeightedRoundRobin::WeightedRoundRobinSubchannelData>>>::_Vector_impl" }
%"struct.std::_Vector_base<grpc_core::ManualConstructor<grpc_core::(anonymous namespace)::OldWeightedRoundRobin::WeightedRoundRobinSubchannelData>, std::allocator<grpc_core::ManualConstructor<grpc_core::(anonymous namespace)::OldWeightedRoundRobin::WeightedRoundRobinSubchannelData>>>::_Vector_impl" = type { %"struct.std::_Vector_base<grpc_core::ManualConstructor<grpc_core::(anonymous namespace)::OldWeightedRoundRobin::WeightedRoundRobinSubchannelData>, std::allocator<grpc_core::ManualConstructor<grpc_core::(anonymous namespace)::OldWeightedRoundRobin::WeightedRoundRobinSubchannelData>>>::_Vector_impl_data" }
%"struct.std::_Vector_base<grpc_core::ManualConstructor<grpc_core::(anonymous namespace)::OldWeightedRoundRobin::WeightedRoundRobinSubchannelData>, std::allocator<grpc_core::ManualConstructor<grpc_core::(anonymous namespace)::OldWeightedRoundRobin::WeightedRoundRobinSubchannelData>>>::_Vector_impl_data" = type { ptr, ptr, ptr }
%"class.grpc_core::WeakRefCountedPtr.412" = type { ptr }
%"class.grpc_core::SubchannelData<grpc_core::(anonymous namespace)::OldWeightedRoundRobin::WeightedRoundRobinSubchannelList, grpc_core::(anonymous namespace)::OldWeightedRoundRobin::WeightedRoundRobinSubchannelData>::Watcher" = type { %"class.grpc_core::SubchannelInterface::ConnectivityStateWatcherInterface", ptr, %"class.grpc_core::WeakRefCountedPtr.412" }
%"class.grpc_core::SubchannelInterface::ConnectivityStateWatcherInterface" = type { ptr }

; Function Attrs: mustprogress nounwind uwtable
define linkonce_odr noundef ptr @_ZNK9grpc_core19LoadBalancingPolicy18interested_partiesEv(ptr noundef nonnull align 8 dereferenceable(56) %this) #5 comdat align 2 {
entry:
  %this.addr = alloca ptr, align 8
  store ptr %this, ptr %this.addr, align 8
  %this1 = load ptr, ptr %this.addr, align 8
  %interested_parties_ = getelementptr inbounds %"class.grpc_core::LoadBalancingPolicy", ptr %this1, i32 0, i32 2
  %0 = load ptr, ptr %interested_parties_, align 8
  ret ptr %0
}

; Function Attrs: mustprogress nounwind uwtable
define internal noundef ptr @_ZNK9grpc_core14SubchannelListINS_12_GLOBAL__N_121OldWeightedRoundRobin32WeightedRoundRobinSubchannelListENS2_32WeightedRoundRobinSubchannelDataEE6policyEv(ptr noundef nonnull align 8 dereferenceable(57) %this) #5 align 2 {
entry:
  %this.addr = alloca ptr, align 8
  store ptr %this, ptr %this.addr, align 8
  %this1 = load ptr, ptr %this.addr, align 8
  %policy_ = getelementptr inbounds %"class.grpc_core::SubchannelList", ptr %this1, i32 0, i32 1
  %0 = load ptr, ptr %policy_, align 8
  ret ptr %0
}

; Function Attrs: mustprogress nounwind uwtable
define internal noundef ptr @_ZNK9grpc_core17WeakRefCountedPtrINS_12_GLOBAL__N_121OldWeightedRoundRobin32WeightedRoundRobinSubchannelListEEptEv(ptr noundef nonnull align 8 dereferenceable(8) %this) #5 align 2 {
entry:
  %this.addr = alloca ptr, align 8
  store ptr %this, ptr %this.addr, align 8
  %this1 = load ptr, ptr %this.addr, align 8
  %value_ = getelementptr inbounds %"class.grpc_core::WeakRefCountedPtr.412", ptr %this1, i32 0, i32 0
  %0 = load ptr, ptr %value_, align 8
  ret ptr %0
}

; Function Attrs: mustprogress uwtable
define internal noundef ptr @_ZN9grpc_core14SubchannelDataINS_12_GLOBAL__N_121OldWeightedRoundRobin32WeightedRoundRobinSubchannelListENS2_32WeightedRoundRobinSubchannelDataEE7Watcher18interested_partiesEv(ptr noundef nonnull align 8 dereferenceable(24) %this) unnamed_addr #4 align 2 {
entry:
  %this.addr = alloca ptr, align 8
  store ptr %this, ptr %this.addr, align 8
  %this1 = load ptr, ptr %this.addr, align 8
  %subchannel_list_ = getelementptr inbounds %"class.grpc_core::SubchannelData<grpc_core::(anonymous namespace)::OldWeightedRoundRobin::WeightedRoundRobinSubchannelList, grpc_core::(anonymous namespace)::OldWeightedRoundRobin::WeightedRoundRobinSubchannelData>::Watcher", ptr %this1, i32 0, i32 2
  %call = call noundef ptr @_ZNK9grpc_core17WeakRefCountedPtrINS_12_GLOBAL__N_121OldWeightedRoundRobin32WeightedRoundRobinSubchannelListEEptEv(ptr noundef nonnull align 8 dereferenceable(8) %subchannel_list_)
  %call2 = call noundef ptr @_ZNK9grpc_core14SubchannelListINS_12_GLOBAL__N_121OldWeightedRoundRobin32WeightedRoundRobinSubchannelListENS2_32WeightedRoundRobinSubchannelDataEE6policyEv(ptr noundef nonnull align 8 dereferenceable(57) %call)
  %call3 = call noundef ptr @_ZNK9grpc_core19LoadBalancingPolicy18interested_partiesEv(ptr noundef nonnull align 8 dereferenceable(56) %call2)
  ret ptr %call3
}