; Function Attrs: mustprogress nofree norecurse nosync nounwind willreturn memory(read, inaccessiblemem: none) uwtable
define internal noundef ptr @_ZN9grpc_core14SubchannelDataINS_12_GLOBAL__N_121OldWeightedRoundRobin32WeightedRoundRobinSubchannelListENS2_32WeightedRoundRobinSubchannelDataEE7Watcher18interested_partiesEv(ptr nocapture noundef nonnull readonly align 8 dereferenceable(24) %this) unnamed_addr #25 align 2 {
entry:
  %subchannel_list_ = getelementptr inbounds i8, ptr %this, i64 16
  %subchannel_list_.val = load ptr, ptr %subchannel_list_, align 8
  %0 = getelementptr i8, ptr %subchannel_list_.val, i64 16
  %call.val = load ptr, ptr %0, align 8
  %interested_parties_.i = getelementptr inbounds i8, ptr %call.val, i64 32
  %1 = load ptr, ptr %interested_parties_.i, align 8
  ret ptr %1
}